; Function Attrs: mustprogress uwtable
define hidden void @_ZN4cvc58internal12TheoryEngine28notifyPreprocessedAssertionsERKSt6vectorINS0_12NodeTemplateILb1EEESaIS4_EE(ptr nocapture noundef nonnull readonly align 8 dereferenceable(1448) %this, ptr noundef nonnull align 8 dereferenceable(24) %assertions) local_unnamed_addr #3 align 2 {
entry:
  %theoryId = alloca i32, align 4
  store i32 0, ptr %theoryId, align 4
  %d_theoryTable = getelementptr inbounds i8, ptr %this, i64 24
  br label %for.body

for.body:                                         ; preds = %entry, %for.inc
  %0 = phi i32 [ 0, %entry ], [ %.pr, %for.inc ]
  %idxprom = zext i32 %0 to i64
  %arrayidx = getelementptr inbounds [14 x ptr], ptr %d_theoryTable, i64 0, i64 %idxprom
  %1 = load ptr, ptr %arrayidx, align 8
  %tobool.not = icmp eq ptr %1, null
  br i1 %tobool.not, label %for.inc, label %if.then

if.then:                                          ; preds = %for.body
  %vtable = load ptr, ptr %1, align 8
  %vfn = getelementptr inbounds i8, ptr %vtable, i64 232
  %2 = load ptr, ptr %vfn, align 8
  call void %2(ptr noundef nonnull align 8 dereferenceable(408) %1, ptr noundef nonnull align 8 dereferenceable(24) %assertions)
  br label %for.inc

for.inc:                                          ; preds = %for.body, %if.then
  %call2 = call noundef nonnull align 4 dereferenceable(4) ptr @_ZN4cvc58internal6theoryppERNS1_8TheoryIdE(ptr noundef nonnull align 4 dereferenceable(4) %theoryId)
  %.pr = load i32, ptr %theoryId, align 4
  %cmp = icmp slt i32 %.pr, 14
  br i1 %cmp, label %for.body, label %for.end, !llvm.loop !32

for.end:                                          ; preds = %for.inc
  %d_relManager = getelementptr inbounds i8, ptr %this, i64 200
  %3 = load ptr, ptr %d_relManager, align 8
  %cmp.i.i.not = icmp eq ptr %3, null
  br i1 %cmp.i.i.not, label %if.end7, label %if.then4

if.then4:                                         ; preds = %for.end
  call void @_ZN4cvc58internal6theory16RelevanceManager28notifyPreprocessedAssertionsERKSt6vectorINS0_12NodeTemplateILb1EEESaIS5_EEb(ptr noundef nonnull align 8 dereferenceable(656) %3, ptr noundef nonnull align 8 dereferenceable(24) %assertions, i1 noundef zeroext true)
  br label %if.end7

if.end7:                                          ; preds = %if.then4, %for.end
  ret void
}